; Function Attrs: nounwind uwtable
define noalias nonnull ptr @l_Lean_PrettyPrinter_Parenthesizer_checkWsBefore_parenthesizer___boxed(ptr noundef %0, ptr noundef %1, ptr noundef %2, ptr noundef %3) local_unnamed_addr #0 {
  tail call void @lean_inc_heartbeat() #6
  %5 = tail call noalias ptr @mi_malloc_small(i64 noundef 24) #6
  %6 = icmp eq ptr %5, null
  br i1 %6, label %7, label %l_Lean_PrettyPrinter_Parenthesizer_checkWsBefore_parenthesizer.exit

7:                                                ; preds = %4
  tail call void @lean_internal_panic_out_of_memory() #7
  unreachable

l_Lean_PrettyPrinter_Parenthesizer_checkWsBefore_parenthesizer.exit: ; preds = %4
  %8 = getelementptr inbounds nuw i8, ptr %5, i64 4
  store i32 1, ptr %5, align 4, !tbaa !8
  store i32 -184549352, ptr %8, align 4
  %9 = getelementptr inbounds nuw i8, ptr %5, i64 8
  store ptr @l_Lean_PrettyPrinter_Parenthesizer_checkWsBefore_parenthesizer___rarg, ptr %9, align 8, !tbaa !4
  %10 = getelementptr inbounds nuw i8, ptr %5, i64 16
  store i16 1, ptr %10, align 8, !tbaa !15
  %11 = getelementptr inbounds nuw i8, ptr %5, i64 18
  store i16 0, ptr %11, align 2, !tbaa !15
  %12 = ptrtoint ptr %3 to i64
  %13 = and i64 %12, 1
  %.not = icmp eq i64 %13, 0
  br i1 %.not, label %14, label %lean_dec.exit11

14:                                               ; preds = %l_Lean_PrettyPrinter_Parenthesizer_checkWsBefore_parenthesizer.exit
  %15 = load i32, ptr %3, align 4, !tbaa !8
  %16 = icmp sgt i32 %15, 1
  br i1 %16, label %17, label %19, !prof !11

17:                                               ; preds = %14
  %18 = add nsw i32 %15, -1
  store i32 %18, ptr %3, align 4, !tbaa !8
  br label %lean_dec.exit11

19:                                               ; preds = %14
  %.not.i = icmp eq i32 %15, 0
  br i1 %.not.i, label %lean_dec.exit11, label %20

20:                                               ; preds = %19
  tail call void @lean_dec_ref_cold(ptr noundef nonnull %3) #6
  br label %lean_dec.exit11

lean_dec.exit11:                                  ; preds = %20, %19, %17, %l_Lean_PrettyPrinter_Parenthesizer_checkWsBefore_parenthesizer.exit
  %21 = ptrtoint ptr %2 to i64
  %22 = and i64 %21, 1
  %.not18 = icmp eq i64 %22, 0
  br i1 %.not18, label %23, label %lean_dec.exit10

23:                                               ; preds = %lean_dec.exit11
  %24 = load i32, ptr %2, align 4, !tbaa !8
  %25 = icmp sgt i32 %24, 1
  br i1 %25, label %26, label %28, !prof !11

26:                                               ; preds = %23
  %27 = add nsw i32 %24, -1
  store i32 %27, ptr %2, align 4, !tbaa !8
  br label %lean_dec.exit10

28:                                               ; preds = %23
  %.not.i12 = icmp eq i32 %24, 0
  br i1 %.not.i12, label %lean_dec.exit10, label %29

29:                                               ; preds = %28
  tail call void @lean_dec_ref_cold(ptr noundef nonnull %2) #6
  br label %lean_dec.exit10

lean_dec.exit10:                                  ; preds = %29, %28, %26, %lean_dec.exit11
  %30 = ptrtoint ptr %1 to i64
  %31 = and i64 %30, 1
  %.not19 = icmp eq i64 %31, 0
  br i1 %.not19, label %32, label %lean_dec.exit9

32:                                               ; preds = %lean_dec.exit10
  %33 = load i32, ptr %1, align 4, !tbaa !8
  %34 = icmp sgt i32 %33, 1
  br i1 %34, label %35, label %37, !prof !11

35:                                               ; preds = %32
  %36 = add nsw i32 %33, -1
  store i32 %36, ptr %1, align 4, !tbaa !8
  br label %lean_dec.exit9

37:                                               ; preds = %32
  %.not.i14 = icmp eq i32 %33, 0
  br i1 %.not.i14, label %lean_dec.exit9, label %38

38:                                               ; preds = %37
  tail call void @lean_dec_ref_cold(ptr noundef nonnull %1) #6
  br label %lean_dec.exit9

lean_dec.exit9:                                   ; preds = %38, %37, %35, %lean_dec.exit10
  %39 = ptrtoint ptr %0 to i64
  %40 = and i64 %39, 1
  %.not20 = icmp eq i64 %40, 0
  br i1 %.not20, label %41, label %lean_dec.exit

41:                                               ; preds = %lean_dec.exit9
  %42 = load i32, ptr %0, align 4, !tbaa !8
  %43 = icmp sgt i32 %42, 1
  br i1 %43, label %44, label %46, !prof !11

44:                                               ; preds = %41
  %45 = add nsw i32 %42, -1
  store i32 %45, ptr %0, align 4, !tbaa !8
  br label %lean_dec.exit

46:                                               ; preds = %41
  %.not.i16 = icmp eq i32 %42, 0
  br i1 %.not.i16, label %lean_dec.exit, label %47

47:                                               ; preds = %46
  tail call void @lean_dec_ref_cold(ptr noundef nonnull %0) #6
  br label %lean_dec.exit

lean_dec.exit:                                    ; preds = %47, %46, %44, %lean_dec.exit9
  ret ptr %5
}